target datalayout = "e-m:e-p270:32:32-p271:32:32-p272:64:64-i64:64-i128:128-f80:128-n8:16:32:64-S128"
target triple = "x86_64-pc-linux-gnu"

@.str = private unnamed_addr constant [2 x i8] c"'\00", align 1
@.str.1 = private unnamed_addr constant [3 x i8] c"''\00", align 1

; Function Attrs: mustprogress nounwind uwtable
define internal noundef zeroext i1 @_ZN4YAML5Utils12_GLOBAL__N_114IsTrailingByteEc(i8 noundef signext %0) #3 {
  %2 = alloca i8, align 1
  store i8 %0, ptr %2, align 1, !tbaa !20
  %3 = load i8, ptr %2, align 1, !tbaa !20
  %4 = sext i8 %3 to i32
  %5 = and i32 %4, 192
  %6 = icmp eq i32 %5, 128
  ret i1 %6
}

; Function Attrs: mustprogress nounwind uwtable
define internal noundef i32 @_ZN4YAML5Utils12_GLOBAL__N_118Utf8BytesIndicatedEc(i8 noundef signext %0) #3 {
  %2 = alloca i32, align 4
  %3 = alloca i8, align 1
  %4 = alloca i32, align 4
  %5 = alloca i32, align 4
  store i8 %0, ptr %3, align 1, !tbaa !20
  call void @llvm.lifetime.start.p0(i64 4, ptr %4) #5
  %6 = load i8, ptr %3, align 1, !tbaa !20
  %7 = zext i8 %6 to i32
  store i32 %7, ptr %4, align 4, !tbaa !30
  %8 = load i32, ptr %4, align 4, !tbaa !30
  %9 = ashr i32 %8, 4
  switch i32 %9, label %14 [
    i32 0, label %10
    i32 1, label %10
    i32 2, label %10
    i32 3, label %10
    i32 4, label %10
    i32 5, label %10
    i32 6, label %10
    i32 7, label %10
    i32 12, label %11
    i32 13, label %11
    i32 14, label %12
    i32 15, label %13
  ]

10:                                               ; preds = %1, %1, %1, %1, %1, %1, %1, %1
  store i32 1, ptr %2, align 4
  store i32 1, ptr %5, align 4
  br label %15

11:                                               ; preds = %1, %1
  store i32 2, ptr %2, align 4
  store i32 1, ptr %5, align 4
  br label %15

12:                                               ; preds = %1
  store i32 3, ptr %2, align 4
  store i32 1, ptr %5, align 4
  br label %15

13:                                               ; preds = %1
  store i32 4, ptr %2, align 4
  store i32 1, ptr %5, align 4
  br label %15

14:                                               ; preds = %1
  store i32 -1, ptr %2, align 4
  store i32 1, ptr %5, align 4
  br label %15

15:                                               ; preds = %14, %13, %12, %11, %10
  call void @llvm.lifetime.end.p0(i64 4, ptr %4) #5
  %16 = load i32, ptr %2, align 4
  ret i32 %16
}

; Function Attrs: inlinehint mustprogress uwtable
define linkonce_odr noundef nonnull align 8 dereferenceable(57) ptr @_ZN4YAMLlsILm3EEERNS_15ostream_wrapperES2_RAT__Kc(ptr noundef nonnull align 8 dereferenceable(57) %0, ptr noundef nonnull align 1 dereferenceable(3) %1) #1 comdat {
  %3 = alloca ptr, align 8
  %4 = alloca ptr, align 8
  store ptr %0, ptr %3, align 8, !tbaa !28
  store ptr %1, ptr %4, align 8, !tbaa !3
  %5 = load ptr, ptr %3, align 8, !tbaa !28
  %6 = load ptr, ptr %4, align 8, !tbaa !3
  %7 = getelementptr inbounds [3 x i8], ptr %6, i64 0, i64 0
  call void @_ZN4YAML15ostream_wrapper5writeEPKcm(ptr noundef nonnull align 8 dereferenceable(57) %5, ptr noundef %7, i64 noundef 2)
  %8 = load ptr, ptr %3, align 8, !tbaa !28
  ret ptr %8
}

; Function Attrs: mustprogress uwtable
define internal noundef zeroext i1 @_ZN4YAML5Utils12_GLOBAL__N_126GetNextCodePointAndAdvanceERiRPKcS4_(ptr noundef nonnull align 4 dereferenceable(4) %0, ptr noundef nonnull align 8 dereferenceable(8) %1, ptr noundef %2) #0 {
  %4 = alloca i1, align 1
  %5 = alloca ptr, align 8
  %6 = alloca ptr, align 8
  %7 = alloca ptr, align 8
  %8 = alloca i32, align 4
  %9 = alloca i32, align 4
  store ptr %0, ptr %5, align 8, !tbaa !33
  store ptr %1, ptr %6, align 8, !tbaa !35
  store ptr %2, ptr %7, align 8, !tbaa !3
  %10 = load ptr, ptr %6, align 8, !tbaa !35
  %11 = load ptr, ptr %10, align 8, !tbaa !3
  %12 = load ptr, ptr %7, align 8, !tbaa !3
  %13 = icmp eq ptr %11, %12
  br i1 %13, label %14, label %15

14:                                               ; preds = %3
  store i1 false, ptr %4, align 1
  br label %124

15:                                               ; preds = %3
  call void @llvm.lifetime.start.p0(i64 4, ptr %8) #5
  %16 = load ptr, ptr %6, align 8, !tbaa !35
  %17 = load ptr, ptr %16, align 8, !tbaa !3
  %18 = load i8, ptr %17, align 1, !tbaa !20
  %19 = call noundef i32 @_ZN4YAML5Utils12_GLOBAL__N_118Utf8BytesIndicatedEc(i8 noundef signext %18)
  store i32 %19, ptr %8, align 4, !tbaa !30
  %20 = load i32, ptr %8, align 4, !tbaa !30
  %21 = icmp slt i32 %20, 1
  br i1 %21, label %22, label %27

22:                                               ; preds = %15
  %23 = load ptr, ptr %6, align 8, !tbaa !35
  %24 = load ptr, ptr %23, align 8, !tbaa !3
  %25 = getelementptr inbounds nuw i8, ptr %24, i32 1
  store ptr %25, ptr %23, align 8, !tbaa !3
  %26 = load ptr, ptr %5, align 8, !tbaa !33
  store i32 65533, ptr %26, align 4, !tbaa !30
  store i1 true, ptr %4, align 1
  store i32 1, ptr %9, align 4
  br label %123

27:                                               ; preds = %15
  %28 = load i32, ptr %8, align 4, !tbaa !30
  %29 = icmp eq i32 %28, 1
  br i1 %29, label %30, label %37

30:                                               ; preds = %27
  %31 = load ptr, ptr %6, align 8, !tbaa !35
  %32 = load ptr, ptr %31, align 8, !tbaa !3
  %33 = getelementptr inbounds nuw i8, ptr %32, i32 1
  store ptr %33, ptr %31, align 8, !tbaa !3
  %34 = load i8, ptr %32, align 1, !tbaa !20
  %35 = sext i8 %34 to i32
  %36 = load ptr, ptr %5, align 8, !tbaa !33
  store i32 %35, ptr %36, align 4, !tbaa !30
  store i1 true, ptr %4, align 1
  store i32 1, ptr %9, align 4
  br label %123

37:                                               ; preds = %27
  %38 = load ptr, ptr %6, align 8, !tbaa !35
  %39 = load ptr, ptr %38, align 8, !tbaa !3
  %40 = load i8, ptr %39, align 1, !tbaa !20
  %41 = zext i8 %40 to i32
  %42 = load i32, ptr %8, align 4, !tbaa !30
  %43 = sub nsw i32 7, %42
  %44 = shl i32 255, %43
  %45 = xor i32 %44, -1
  %46 = and i32 %41, %45
  %47 = load ptr, ptr %5, align 8, !tbaa !33
  store i32 %46, ptr %47, align 4, !tbaa !30
  %48 = load ptr, ptr %6, align 8, !tbaa !35
  %49 = load ptr, ptr %48, align 8, !tbaa !3
  %50 = getelementptr inbounds nuw i8, ptr %49, i32 1
  store ptr %50, ptr %48, align 8, !tbaa !3
  %51 = load i32, ptr %8, align 4, !tbaa !30
  %52 = add nsw i32 %51, -1
  store i32 %52, ptr %8, align 4, !tbaa !30
  br label %53

53:                                               ; preds = %80, %37
  %54 = load i32, ptr %8, align 4, !tbaa !30
  %55 = icmp sgt i32 %54, 0
  br i1 %55, label %56, label %86

56:                                               ; preds = %53
  %57 = load ptr, ptr %6, align 8, !tbaa !35
  %58 = load ptr, ptr %57, align 8, !tbaa !3
  %59 = load ptr, ptr %7, align 8, !tbaa !3
  %60 = icmp eq ptr %58, %59
  br i1 %60, label %66, label %61

61:                                               ; preds = %56
  %62 = load ptr, ptr %6, align 8, !tbaa !35
  %63 = load ptr, ptr %62, align 8, !tbaa !3
  %64 = load i8, ptr %63, align 1, !tbaa !20
  %65 = call noundef zeroext i1 @_ZN4YAML5Utils12_GLOBAL__N_114IsTrailingByteEc(i8 noundef signext %64)
  br i1 %65, label %68, label %66

66:                                               ; preds = %61, %56
  %67 = load ptr, ptr %5, align 8, !tbaa !33
  store i32 65533, ptr %67, align 4, !tbaa !30
  br label %86

68:                                               ; preds = %61
  %69 = load ptr, ptr %5, align 8, !tbaa !33
  %70 = load i32, ptr %69, align 4, !tbaa !30
  %71 = shl i32 %70, 6
  store i32 %71, ptr %69, align 4, !tbaa !30
  %72 = load ptr, ptr %6, align 8, !tbaa !35
  %73 = load ptr, ptr %72, align 8, !tbaa !3
  %74 = load i8, ptr %73, align 1, !tbaa !20
  %75 = sext i8 %74 to i32
  %76 = and i32 %75, 63
  %77 = load ptr, ptr %5, align 8, !tbaa !33
  %78 = load i32, ptr %77, align 4, !tbaa !30
  %79 = or i32 %78, %76
  store i32 %79, ptr %77, align 4, !tbaa !30
  br label %80

80:                                               ; preds = %68
  %81 = load ptr, ptr %6, align 8, !tbaa !35
  %82 = load ptr, ptr %81, align 8, !tbaa !3
  %83 = getelementptr inbounds nuw i8, ptr %82, i32 1
  store ptr %83, ptr %81, align 8, !tbaa !3
  %84 = load i32, ptr %8, align 4, !tbaa !30
  %85 = add nsw i32 %84, -1
  store i32 %85, ptr %8, align 4, !tbaa !30
  br label %53, !llvm.loop !38

86:                                               ; preds = %66, %53
  %87 = load ptr, ptr %5, align 8, !tbaa !33
  %88 = load i32, ptr %87, align 4, !tbaa !30
  %89 = icmp sgt i32 %88, 1114111
  br i1 %89, label %90, label %92

90:                                               ; preds = %86
  %91 = load ptr, ptr %5, align 8, !tbaa !33
  store i32 65533, ptr %91, align 4, !tbaa !30
  br label %122

92:                                               ; preds = %86
  %93 = load ptr, ptr %5, align 8, !tbaa !33
  %94 = load i32, ptr %93, align 4, !tbaa !30
  %95 = icmp sge i32 %94, 55296
  br i1 %95, label %96, label %102

96:                                               ; preds = %92
  %97 = load ptr, ptr %5, align 8, !tbaa !33
  %98 = load i32, ptr %97, align 4, !tbaa !30
  %99 = icmp sle i32 %98, 57343
  br i1 %99, label %100, label %102

100:                                              ; preds = %96
  %101 = load ptr, ptr %5, align 8, !tbaa !33
  store i32 65533, ptr %101, align 4, !tbaa !30
  br label %121

102:                                              ; preds = %96, %92
  %103 = load ptr, ptr %5, align 8, !tbaa !33
  %104 = load i32, ptr %103, align 4, !tbaa !30
  %105 = and i32 %104, 65534
  %106 = icmp eq i32 %105, 65534
  br i1 %106, label %107, label %109

107:                                              ; preds = %102
  %108 = load ptr, ptr %5, align 8, !tbaa !33
  store i32 65533, ptr %108, align 4, !tbaa !30
  br label %120

109:                                              ; preds = %102
  %110 = load ptr, ptr %5, align 8, !tbaa !33
  %111 = load i32, ptr %110, align 4, !tbaa !30
  %112 = icmp sge i32 %111, 64976
  br i1 %112, label %113, label %119

113:                                              ; preds = %109
  %114 = load ptr, ptr %5, align 8, !tbaa !33
  %115 = load i32, ptr %114, align 4, !tbaa !30
  %116 = icmp sle i32 %115, 65007
  br i1 %116, label %117, label %119

117:                                              ; preds = %113
  %118 = load ptr, ptr %5, align 8, !tbaa !33
  store i32 65533, ptr %118, align 4, !tbaa !30
  br label %119

119:                                              ; preds = %117, %113, %109
  br label %120

120:                                              ; preds = %119, %107
  br label %121

121:                                              ; preds = %120, %100
  br label %122

122:                                              ; preds = %121, %90
  store i1 true, ptr %4, align 1
  store i32 1, ptr %9, align 4
  br label %123

123:                                              ; preds = %122, %30, %22
  call void @llvm.lifetime.end.p0(i64 4, ptr %8) #5
  br label %124

124:                                              ; preds = %123, %14
  %125 = load i1, ptr %4, align 1
  ret i1 %125
}

; Function Attrs: inlinehint mustprogress uwtable
define linkonce_odr noundef nonnull align 8 dereferenceable(57) ptr @_ZN4YAMLlsILm2EEERNS_15ostream_wrapperES2_RAT__Kc(ptr noundef nonnull align 8 dereferenceable(57) %0, ptr noundef nonnull align 1 dereferenceable(2) %1) #1 comdat {
  %3 = alloca ptr, align 8
  %4 = alloca ptr, align 8
  store ptr %0, ptr %3, align 8, !tbaa !28
  store ptr %1, ptr %4, align 8, !tbaa !3
  %5 = load ptr, ptr %3, align 8, !tbaa !28
  %6 = load ptr, ptr %4, align 8, !tbaa !3
  %7 = getelementptr inbounds [2 x i8], ptr %6, i64 0, i64 0
  call void @_ZN4YAML15ostream_wrapper5writeEPKcm(ptr noundef nonnull align 8 dereferenceable(57) %5, ptr noundef %7, i64 noundef 1)
  %8 = load ptr, ptr %3, align 8, !tbaa !28
  ret ptr %8
}

; Function Attrs: mustprogress uwtable
define noundef zeroext i1 @_ZN4YAML5Utils23WriteSingleQuotedStringERNS_15ostream_wrapperEPKcm(ptr noundef nonnull align 8 dereferenceable(57) %0, ptr noundef %1, i64 noundef %2) #0 {
  %4 = alloca i1, align 1
  %5 = alloca ptr, align 8
  %6 = alloca ptr, align 8
  %7 = alloca i64, align 8
  %8 = alloca i32, align 4
  %9 = alloca ptr, align 8
  %10 = alloca i32, align 4
  store ptr %0, ptr %5, align 8, !tbaa !28
  store ptr %1, ptr %6, align 8, !tbaa !3
  store i64 %2, ptr %7, align 8, !tbaa !8
  %11 = load ptr, ptr %5, align 8, !tbaa !28
  %12 = call noundef nonnull align 8 dereferenceable(57) ptr @_ZN4YAMLlsILm2EEERNS_15ostream_wrapperES2_RAT__Kc(ptr noundef nonnull align 8 dereferenceable(57) %11, ptr noundef nonnull align 1 dereferenceable(2) @.str)
  call void @llvm.lifetime.start.p0(i64 4, ptr %8) #5
  call void @llvm.lifetime.start.p0(i64 8, ptr %9) #5
  %13 = load ptr, ptr %6, align 8, !tbaa !3
  store ptr %13, ptr %9, align 8, !tbaa !3
  br label %14

14:                                               ; preds = %33, %3
  %15 = load ptr, ptr %6, align 8, !tbaa !3
  %16 = load i64, ptr %7, align 8, !tbaa !8
  %17 = getelementptr inbounds nuw i8, ptr %15, i64 %16
  %18 = call noundef zeroext i1 @_ZN4YAML5Utils12_GLOBAL__N_126GetNextCodePointAndAdvanceERiRPKcS4_(ptr noundef nonnull align 4 dereferenceable(4) %8, ptr noundef nonnull align 8 dereferenceable(8) %9, ptr noundef %17)
  br i1 %18, label %20, label %19

19:                                               ; preds = %14
  store i32 2, ptr %10, align 4
  br label %34

20:                                               ; preds = %14
  %21 = load i32, ptr %8, align 4, !tbaa !30
  %22 = icmp eq i32 %21, 10
  br i1 %22, label %23, label %24

23:                                               ; preds = %20
  store i1 false, ptr %4, align 1
  store i32 1, ptr %10, align 4
  br label %34

24:                                               ; preds = %20
  %25 = load i32, ptr %8, align 4, !tbaa !30
  %26 = icmp eq i32 %25, 39
  br i1 %26, label %27, label %30

27:                                               ; preds = %24
  %28 = load ptr, ptr %5, align 8, !tbaa !28
  %29 = call noundef nonnull align 8 dereferenceable(57) ptr @_ZN4YAMLlsILm3EEERNS_15ostream_wrapperES2_RAT__Kc(ptr noundef nonnull align 8 dereferenceable(57) %28, ptr noundef nonnull align 1 dereferenceable(3) @.str.1)
  br label %33

30:                                               ; preds = %24
  %31 = load ptr, ptr %5, align 8, !tbaa !28
  %32 = load i32, ptr %8, align 4, !tbaa !30
  call void @_ZN4YAML5Utils12_GLOBAL__N_114WriteCodePointERNS_15ostream_wrapperEi(ptr noundef nonnull align 8 dereferenceable(57) %31, i32 noundef %32)
  br label %33

33:                                               ; preds = %30, %27
  br label %14, !llvm.loop !32

34:                                               ; preds = %23, %19
  call void @llvm.lifetime.end.p0(i64 8, ptr %9) #5
  %35 = load i32, ptr %10, align 4
  switch i32 %35, label %39 [
    i32 2, label %36
  ]

36:                                               ; preds = %34
  %37 = load ptr, ptr %5, align 8, !tbaa !28
  %38 = call noundef nonnull align 8 dereferenceable(57) ptr @_ZN4YAMLlsILm2EEERNS_15ostream_wrapperES2_RAT__Kc(ptr noundef nonnull align 8 dereferenceable(57) %37, ptr noundef nonnull align 1 dereferenceable(2) @.str)
  store i1 true, ptr %4, align 1
  store i32 1, ptr %10, align 4
  br label %39

39:                                               ; preds = %36, %34
  call void @llvm.lifetime.end.p0(i64 4, ptr %8) #5
  %40 = load i1, ptr %4, align 1
  ret i1 %40
}