; Function Attrs: mustprogress uwtable
define noundef zeroext i1 @_ZN4YAML5Utils23WriteSingleQuotedStringERNS_15ostream_wrapperEPKcm(ptr noundef nonnull align 8 dereferenceable(57) %0, ptr noundef readonly captures(address) %1, i64 noundef %2) local_unnamed_addr #0 {
  tail call void @_ZN4YAML15ostream_wrapper5writeEPKcm(ptr noundef nonnull align 8 dereferenceable(57) %0, ptr noundef nonnull @.str, i64 noundef 1)
  %4 = getelementptr inbounds nuw i8, ptr %1, i64 %2
  %.not29 = icmp samesign eq i64 %2, 0
  br i1 %.not29, label %.critedge, label %.lr.ph

.lr.ph:                                           ; preds = %3, %39
  %.030 = phi ptr [ %.31622, %39 ], [ %1, %3 ]
  %5 = load i8, ptr %.030, align 1, !tbaa !12
  %6 = lshr i8 %5, 4
  switch i8 %6, label %_ZN4YAML5Utils12_GLOBAL__N_126GetNextCodePointAndAdvanceERiRPKcS4_.exit.thread.thread [
    i8 0, label %10
    i8 1, label %10
    i8 2, label %10
    i8 3, label %10
    i8 4, label %10
    i8 5, label %10
    i8 6, label %10
    i8 7, label %10
    i8 12, label %13
    i8 13, label %13
    i8 14, label %7
    i8 15, label %8
  ]

7:                                                ; preds = %.lr.ph
  br label %13

8:                                                ; preds = %.lr.ph
  br label %13

_ZN4YAML5Utils12_GLOBAL__N_126GetNextCodePointAndAdvanceERiRPKcS4_.exit.thread.thread: ; preds = %.lr.ph
  %9 = getelementptr inbounds nuw i8, ptr %.030, i64 1
  br label %_ZN4YAML5Utils12_GLOBAL__N_126GetNextCodePointAndAdvanceERiRPKcS4_.exit.thread.thread35

10:                                               ; preds = %.lr.ph, %.lr.ph, %.lr.ph, %.lr.ph, %.lr.ph, %.lr.ph, %.lr.ph, %.lr.ph
  %11 = getelementptr inbounds nuw i8, ptr %.030, i64 1
  %12 = sext i8 %5 to i32
  br label %_ZN4YAML5Utils12_GLOBAL__N_126GetNextCodePointAndAdvanceERiRPKcS4_.exit.thread

13:                                               ; preds = %8, %7, %.lr.ph, %.lr.ph
  %.0.i.ph.ph.i = phi i32 [ 4, %8 ], [ 3, %7 ], [ 2, %.lr.ph ], [ 2, %.lr.ph ]
  %14 = zext i8 %5 to i32
  %15 = xor i32 %.0.i.ph.ph.i, 7
  %16 = shl nuw nsw i32 255, %15
  %17 = xor i32 %16, -1
  %18 = and i32 %17, %14
  %scevgep = getelementptr i8, ptr %.030, i64 2
  %19 = zext nneg i32 %.0.i.ph.ph.i to i64
  %20 = getelementptr i8, ptr %scevgep, i64 %19
  %scevgep34 = getelementptr i8, ptr %20, i64 -2
  br label %21

21:                                               ; preds = %26, %13
  %.030.pn = phi ptr [ %.030, %13 ], [ %.110, %26 ]
  %.057.in.i = phi i32 [ %.0.i.ph.ph.i, %13 ], [ %.057.i, %26 ]
  %storemerge5255.i = phi i32 [ %18, %13 ], [ %30, %26 ]
  %.110 = getelementptr inbounds nuw i8, ptr %.030.pn, i64 1
  %.057.i = add nsw i32 %.057.in.i, -1
  %22 = icmp eq ptr %.110, %4
  br i1 %22, label %_ZN4YAML5Utils12_GLOBAL__N_126GetNextCodePointAndAdvanceERiRPKcS4_.exit.thread.thread35, label %23

23:                                               ; preds = %21
  %24 = load i8, ptr %.110, align 1, !tbaa !12
  %25 = icmp slt i8 %24, -64
  br i1 %25, label %26, label %_ZN4YAML5Utils12_GLOBAL__N_126GetNextCodePointAndAdvanceERiRPKcS4_.exit.thread.thread35

26:                                               ; preds = %23
  %27 = shl i32 %storemerge5255.i, 6
  %28 = and i8 %24, 63
  %29 = zext nneg i8 %28 to i32
  %30 = or disjoint i32 %27, %29
  %31 = icmp ugt i32 %.057.in.i, 2
  br i1 %31, label %21, label %32, !llvm.loop !18

32:                                               ; preds = %26
  %33 = icmp sgt i32 %30, 1114111
  %34 = and i32 %storemerge5255.i, 67108832
  %or.cond.i = icmp eq i32 %34, 864
  %or.cond59.i = select i1 %33, i1 true, i1 %or.cond.i
  %35 = and i32 %30, 65534
  %36 = icmp eq i32 %35, 65534
  %or.cond61.i = or i1 %or.cond59.i, %36
  %37 = add i32 %30, -64976
  %or.cond41.i = icmp ult i32 %37, 32
  %or.cond62.i = or i1 %or.cond41.i, %or.cond61.i
  br i1 %or.cond62.i, label %_ZN4YAML5Utils12_GLOBAL__N_126GetNextCodePointAndAdvanceERiRPKcS4_.exit.thread.thread35, label %_ZN4YAML5Utils12_GLOBAL__N_126GetNextCodePointAndAdvanceERiRPKcS4_.exit.thread

_ZN4YAML5Utils12_GLOBAL__N_126GetNextCodePointAndAdvanceERiRPKcS4_.exit.thread: ; preds = %32, %10
  %.316 = phi ptr [ %11, %10 ], [ %scevgep34, %32 ]
  %.11215 = phi i32 [ %12, %10 ], [ %30, %32 ]
  switch i32 %.11215, label %_ZN4YAML5Utils12_GLOBAL__N_126GetNextCodePointAndAdvanceERiRPKcS4_.exit.thread.thread35 [
    i32 10, label %.loopexit
    i32 39, label %38
  ]

38:                                               ; preds = %_ZN4YAML5Utils12_GLOBAL__N_126GetNextCodePointAndAdvanceERiRPKcS4_.exit.thread
  tail call void @_ZN4YAML15ostream_wrapper5writeEPKcm(ptr noundef nonnull align 8 dereferenceable(57) %0, ptr noundef nonnull @.str.1, i64 noundef 2)
  br label %39

_ZN4YAML5Utils12_GLOBAL__N_126GetNextCodePointAndAdvanceERiRPKcS4_.exit.thread.thread35: ; preds = %23, %21, %32, %_ZN4YAML5Utils12_GLOBAL__N_126GetNextCodePointAndAdvanceERiRPKcS4_.exit.thread.thread, %_ZN4YAML5Utils12_GLOBAL__N_126GetNextCodePointAndAdvanceERiRPKcS4_.exit.thread
  %.1121524 = phi i32 [ 65533, %_ZN4YAML5Utils12_GLOBAL__N_126GetNextCodePointAndAdvanceERiRPKcS4_.exit.thread.thread ], [ %.11215, %_ZN4YAML5Utils12_GLOBAL__N_126GetNextCodePointAndAdvanceERiRPKcS4_.exit.thread ], [ 65533, %32 ], [ 65533, %21 ], [ 65533, %23 ]
  %.31623 = phi ptr [ %9, %_ZN4YAML5Utils12_GLOBAL__N_126GetNextCodePointAndAdvanceERiRPKcS4_.exit.thread.thread ], [ %.316, %_ZN4YAML5Utils12_GLOBAL__N_126GetNextCodePointAndAdvanceERiRPKcS4_.exit.thread ], [ %scevgep34, %32 ], [ %.110, %23 ], [ %4, %21 ]
  tail call fastcc void @_ZN4YAML5Utils12_GLOBAL__N_114WriteCodePointERNS_15ostream_wrapperEi(ptr noundef nonnull align 8 dereferenceable(57) %0, i32 noundef %.1121524)
  br label %39

39:                                               ; preds = %_ZN4YAML5Utils12_GLOBAL__N_126GetNextCodePointAndAdvanceERiRPKcS4_.exit.thread.thread35, %38
  %.31622 = phi ptr [ %.31623, %_ZN4YAML5Utils12_GLOBAL__N_126GetNextCodePointAndAdvanceERiRPKcS4_.exit.thread.thread35 ], [ %.316, %38 ]
  %.not = icmp eq ptr %.31622, %4
  br i1 %.not, label %.critedge, label %.lr.ph, !llvm.loop !19

.critedge:                                        ; preds = %39, %3
  tail call void @_ZN4YAML15ostream_wrapper5writeEPKcm(ptr noundef nonnull align 8 dereferenceable(57) %0, ptr noundef nonnull @.str, i64 noundef 1)
  br label %.loopexit

.loopexit:                                        ; preds = %_ZN4YAML5Utils12_GLOBAL__N_126GetNextCodePointAndAdvanceERiRPKcS4_.exit.thread, %.critedge
  %.not28 = phi i1 [ true, %.critedge ], [ false, %_ZN4YAML5Utils12_GLOBAL__N_126GetNextCodePointAndAdvanceERiRPKcS4_.exit.thread ]
  ret i1 %.not28
}